target datalayout = "e-m:e-p270:32:32-p271:32:32-p272:64:64-i64:64-i128:128-f80:128-n8:16:32:64-S128"
target triple = "x86_64-pc-linux-gnu"

%struct._e_guid_t = type { i32, i16, i16, [8 x i8] }
%struct._dcerpc_info = type { ptr, i32, i64, i8, i8, i8, i32, i32, i32, i32, i32, i32, i32, i32, ptr, ptr, ptr, ptr, %struct.anon }
%struct.anon = type { i8, ptr, ptr, ptr, i8 }
%struct._dcerpc_call_value = type { %struct._e_guid_t, i16, %struct._e_guid_t, i16, i32, %struct.nstime_t, i32, i32, ptr, ptr, ptr, i32 }
%struct.nstime_t = type { i64, i32 }

@ett_srvsvc_srvsvc_NetCharDevQInfoCtr = internal global i32 0, align 4
@hf_srvsvc_srvsvc_NetCharDevQCtr_ctr0 = internal global i32 0, align 4
@hf_srvsvc_srvsvc_NetCharDevQCtr_ctr1 = internal global i32 0, align 4
@hf_srvsvc_srvsvc_NetCharDevQInfoCtr_ctr = internal global i32 0, align 4
@hf_srvsvc_srvsvc_NetCharDevQInfoCtr_level = internal global i32 0, align 4
@ett_srvsvc_srvsvc_NetCharDevQCtr = internal global i32 0, align 4
@.str.1112 = private unnamed_addr constant [22 x i8] c"srvsvc_NetCharDevQCtr\00", align 1
@.str.1113 = private unnamed_addr constant [41 x i8] c"Pointer to Ctr0 (srvsvc_NetCharDevQCtr0)\00", align 1
@.str.1114 = private unnamed_addr constant [41 x i8] c"Pointer to Ctr1 (srvsvc_NetCharDevQCtr1)\00", align 1

; Function Attrs: null_pointer_is_valid sspstrong uwtable
define internal i32 @srvsvc_dissect_element_NetCharDevQCtr_ctr1(ptr noundef %0, i32 noundef %1, ptr noundef %2, ptr noundef %3, ptr noundef %4, ptr noundef %5) #0 {
  %7 = alloca ptr, align 8
  %8 = alloca i32, align 4
  %9 = alloca ptr, align 8
  %10 = alloca ptr, align 8
  %11 = alloca ptr, align 8
  %12 = alloca ptr, align 8
  store ptr %0, ptr %7, align 8
  store i32 %1, ptr %8, align 4
  store ptr %2, ptr %9, align 8
  store ptr %3, ptr %10, align 8
  store ptr %4, ptr %11, align 8
  store ptr %5, ptr %12, align 8
  %13 = load ptr, ptr %7, align 8
  %14 = load i32, ptr %8, align 4
  %15 = load ptr, ptr %9, align 8
  %16 = load ptr, ptr %10, align 8
  %17 = load ptr, ptr %11, align 8
  %18 = load ptr, ptr %12, align 8
  %19 = load i32, ptr @hf_srvsvc_srvsvc_NetCharDevQCtr_ctr1, align 4
  %20 = call i32 @dissect_ndr_embedded_pointer(ptr noundef %13, i32 noundef %14, ptr noundef %15, ptr noundef %16, ptr noundef %17, ptr noundef %18, ptr noundef @srvsvc_dissect_element_NetCharDevQCtr_ctr1_, i32 noundef 2, ptr noundef @.str.1114, i32 noundef %19)
  store i32 %20, ptr %8, align 4
  %21 = load i32, ptr %8, align 4
  ret i32 %21
}

; Function Attrs: null_pointer_is_valid sspstrong uwtable
define internal i32 @srvsvc_dissect_element_NetCharDevQCtr_ctr0(ptr noundef %0, i32 noundef %1, ptr noundef %2, ptr noundef %3, ptr noundef %4, ptr noundef %5) #0 {
  %7 = alloca ptr, align 8
  %8 = alloca i32, align 4
  %9 = alloca ptr, align 8
  %10 = alloca ptr, align 8
  %11 = alloca ptr, align 8
  %12 = alloca ptr, align 8
  store ptr %0, ptr %7, align 8
  store i32 %1, ptr %8, align 4
  store ptr %2, ptr %9, align 8
  store ptr %3, ptr %10, align 8
  store ptr %4, ptr %11, align 8
  store ptr %5, ptr %12, align 8
  %13 = load ptr, ptr %7, align 8
  %14 = load i32, ptr %8, align 4
  %15 = load ptr, ptr %9, align 8
  %16 = load ptr, ptr %10, align 8
  %17 = load ptr, ptr %11, align 8
  %18 = load ptr, ptr %12, align 8
  %19 = load i32, ptr @hf_srvsvc_srvsvc_NetCharDevQCtr_ctr0, align 4
  %20 = call i32 @dissect_ndr_embedded_pointer(ptr noundef %13, i32 noundef %14, ptr noundef %15, ptr noundef %16, ptr noundef %17, ptr noundef %18, ptr noundef @srvsvc_dissect_element_NetCharDevQCtr_ctr0_, i32 noundef 2, ptr noundef @.str.1113, i32 noundef %19)
  store i32 %20, ptr %8, align 4
  %21 = load i32, ptr %8, align 4
  ret i32 %21
}

; Function Attrs: null_pointer_is_valid sspstrong uwtable
define internal i32 @srvsvc_dissect_NetCharDevQCtr(ptr noundef %0, i32 noundef %1, ptr noundef %2, ptr noundef %3, ptr noundef %4, ptr noundef %5, i32 noundef %6, i32 noundef %7) #0 {
  %9 = alloca ptr, align 8
  %10 = alloca i32, align 4
  %11 = alloca ptr, align 8
  %12 = alloca ptr, align 8
  %13 = alloca ptr, align 8
  %14 = alloca ptr, align 8
  %15 = alloca i32, align 4
  %16 = alloca i32, align 4
  %17 = alloca ptr, align 8
  %18 = alloca ptr, align 8
  %19 = alloca i32, align 4
  %20 = alloca i32, align 4
  store ptr %0, ptr %9, align 8
  store i32 %1, ptr %10, align 4
  store ptr %2, ptr %11, align 8
  store ptr %3, ptr %12, align 8
  store ptr %4, ptr %13, align 8
  store ptr %5, ptr %14, align 8
  store i32 %6, ptr %15, align 4
  store i32 %7, ptr %16, align 4
  call void @llvm.lifetime.start.p0(i64 8, ptr %17) #4
  store ptr null, ptr %17, align 8
  call void @llvm.lifetime.start.p0(i64 8, ptr %18) #4
  store ptr null, ptr %18, align 8
  call void @llvm.lifetime.start.p0(i64 4, ptr %19) #4
  call void @llvm.lifetime.start.p0(i64 4, ptr %20) #4
  %21 = load i32, ptr %10, align 4
  store i32 %21, ptr %19, align 4
  %22 = load ptr, ptr %12, align 8
  %23 = icmp ne ptr %22, null
  br i1 %23, label %24, label %30

24:                                               ; preds = %8
  %25 = load ptr, ptr %12, align 8
  %26 = load ptr, ptr %9, align 8
  %27 = load i32, ptr %10, align 4
  %28 = load i32, ptr @ett_srvsvc_srvsvc_NetCharDevQCtr, align 4
  %29 = call ptr @proto_tree_add_subtree(ptr noundef %25, ptr noundef %26, i32 noundef %27, i32 noundef -1, i32 noundef %28, ptr noundef %17, ptr noundef @.str.1112)
  store ptr %29, ptr %18, align 8
  br label %30

30:                                               ; preds = %24, %8
  %31 = load ptr, ptr %9, align 8
  %32 = load i32, ptr %10, align 4
  %33 = load ptr, ptr %11, align 8
  %34 = load ptr, ptr %18, align 8
  %35 = load ptr, ptr %13, align 8
  %36 = load ptr, ptr %14, align 8
  %37 = load i32, ptr %15, align 4
  %38 = call i32 @dissect_ndr_uint32(ptr noundef %31, i32 noundef %32, ptr noundef %33, ptr noundef %34, ptr noundef %35, ptr noundef %36, i32 noundef %37, ptr noundef %20)
  store i32 %38, ptr %10, align 4
  %39 = load ptr, ptr %13, align 8
  %40 = getelementptr inbounds nuw %struct._dcerpc_info, ptr %39, i32 0, i32 14
  %41 = load ptr, ptr %40, align 8
  %42 = getelementptr inbounds nuw %struct._dcerpc_call_value, ptr %41, i32 0, i32 11
  %43 = load i32, ptr %42, align 8
  %44 = and i32 %43, 1
  %45 = icmp ne i32 %44, 0
  br i1 %45, label %46, label %61

46:                                               ; preds = %30
  %47 = load ptr, ptr %13, align 8
  %48 = getelementptr inbounds nuw %struct._dcerpc_info, ptr %47, i32 0, i32 4
  %49 = load i8, ptr %48, align 1, !range !6, !noundef !7
  %50 = trunc i8 %49 to i1
  br i1 %50, label %60, label %51

51:                                               ; preds = %46
  %52 = load i32, ptr %10, align 4
  %53 = and i32 %52, 7
  %54 = icmp ne i32 %53, 0
  br i1 %54, label %55, label %59

55:                                               ; preds = %51
  %56 = load i32, ptr %10, align 4
  %57 = and i32 %56, -8
  %58 = add i32 %57, 8
  store i32 %58, ptr %10, align 4
  br label %59

59:                                               ; preds = %55, %51
  br label %60

60:                                               ; preds = %59, %46
  br label %76

61:                                               ; preds = %30
  %62 = load ptr, ptr %13, align 8
  %63 = getelementptr inbounds nuw %struct._dcerpc_info, ptr %62, i32 0, i32 4
  %64 = load i8, ptr %63, align 1, !range !6, !noundef !7
  %65 = trunc i8 %64 to i1
  br i1 %65, label %75, label %66

66:                                               ; preds = %61
  %67 = load i32, ptr %10, align 4
  %68 = and i32 %67, 3
  %69 = icmp ne i32 %68, 0
  br i1 %69, label %70, label %74

70:                                               ; preds = %66
  %71 = load i32, ptr %10, align 4
  %72 = and i32 %71, -4
  %73 = add i32 %72, 4
  store i32 %73, ptr %10, align 4
  br label %74

74:                                               ; preds = %70, %66
  br label %75

75:                                               ; preds = %74, %61
  br label %76

76:                                               ; preds = %75, %60
  %77 = load i32, ptr %20, align 4
  switch i32 %77, label %94 [
    i32 0, label %78
    i32 1, label %86
  ]

78:                                               ; preds = %76
  %79 = load ptr, ptr %9, align 8
  %80 = load i32, ptr %10, align 4
  %81 = load ptr, ptr %11, align 8
  %82 = load ptr, ptr %18, align 8
  %83 = load ptr, ptr %13, align 8
  %84 = load ptr, ptr %14, align 8
  %85 = call i32 @srvsvc_dissect_element_NetCharDevQCtr_ctr0(ptr noundef %79, i32 noundef %80, ptr noundef %81, ptr noundef %82, ptr noundef %83, ptr noundef %84)
  store i32 %85, ptr %10, align 4
  br label %95

86:                                               ; preds = %76
  %87 = load ptr, ptr %9, align 8
  %88 = load i32, ptr %10, align 4
  %89 = load ptr, ptr %11, align 8
  %90 = load ptr, ptr %18, align 8
  %91 = load ptr, ptr %13, align 8
  %92 = load ptr, ptr %14, align 8
  %93 = call i32 @srvsvc_dissect_element_NetCharDevQCtr_ctr1(ptr noundef %87, i32 noundef %88, ptr noundef %89, ptr noundef %90, ptr noundef %91, ptr noundef %92)
  store i32 %93, ptr %10, align 4
  br label %95

94:                                               ; preds = %76
  br label %95

95:                                               ; preds = %94, %86, %78
  %96 = load ptr, ptr %17, align 8
  %97 = load i32, ptr %10, align 4
  %98 = load i32, ptr %19, align 4
  %99 = sub i32 %97, %98
  call void @proto_item_set_len(ptr noundef %96, i32 noundef %99)
  %100 = load i32, ptr %10, align 4
  call void @llvm.lifetime.end.p0(i64 4, ptr %20) #4
  call void @llvm.lifetime.end.p0(i64 4, ptr %19) #4
  call void @llvm.lifetime.end.p0(i64 8, ptr %18) #4
  call void @llvm.lifetime.end.p0(i64 8, ptr %17) #4
  ret i32 %100
}

; Function Attrs: null_pointer_is_valid sspstrong uwtable
define internal i32 @srvsvc_dissect_element_NetCharDevQInfoCtr_ctr(ptr noundef %0, i32 noundef %1, ptr noundef %2, ptr noundef %3, ptr noundef %4, ptr noundef %5, ptr noundef %6) #0 {
  %8 = alloca ptr, align 8
  %9 = alloca i32, align 4
  %10 = alloca ptr, align 8
  %11 = alloca ptr, align 8
  %12 = alloca ptr, align 8
  %13 = alloca ptr, align 8
  %14 = alloca ptr, align 8
  store ptr %0, ptr %8, align 8
  store i32 %1, ptr %9, align 4
  store ptr %2, ptr %10, align 8
  store ptr %3, ptr %11, align 8
  store ptr %4, ptr %12, align 8
  store ptr %5, ptr %13, align 8
  store ptr %6, ptr %14, align 8
  %15 = load ptr, ptr %8, align 8
  %16 = load i32, ptr %9, align 4
  %17 = load ptr, ptr %10, align 8
  %18 = load ptr, ptr %11, align 8
  %19 = load ptr, ptr %12, align 8
  %20 = load ptr, ptr %13, align 8
  %21 = load i32, ptr @hf_srvsvc_srvsvc_NetCharDevQInfoCtr_ctr, align 4
  %22 = load ptr, ptr %14, align 8
  %23 = load i32, ptr %22, align 4
  %24 = call i32 @srvsvc_dissect_NetCharDevQCtr(ptr noundef %15, i32 noundef %16, ptr noundef %17, ptr noundef %18, ptr noundef %19, ptr noundef %20, i32 noundef %21, i32 noundef %23)
  store i32 %24, ptr %9, align 4
  %25 = load i32, ptr %9, align 4
  ret i32 %25
}

; Function Attrs: null_pointer_is_valid sspstrong uwtable
define internal i32 @srvsvc_dissect_element_NetCharDevQInfoCtr_level(ptr noundef %0, i32 noundef %1, ptr noundef %2, ptr noundef %3, ptr noundef %4, ptr noundef %5, ptr noundef %6) #0 {
  %8 = alloca ptr, align 8
  %9 = alloca i32, align 4
  %10 = alloca ptr, align 8
  %11 = alloca ptr, align 8
  %12 = alloca ptr, align 8
  %13 = alloca ptr, align 8
  %14 = alloca ptr, align 8
  store ptr %0, ptr %8, align 8
  store i32 %1, ptr %9, align 4
  store ptr %2, ptr %10, align 8
  store ptr %3, ptr %11, align 8
  store ptr %4, ptr %12, align 8
  store ptr %5, ptr %13, align 8
  store ptr %6, ptr %14, align 8
  %15 = load ptr, ptr %8, align 8
  %16 = load i32, ptr %9, align 4
  %17 = load ptr, ptr %10, align 8
  %18 = load ptr, ptr %11, align 8
  %19 = load ptr, ptr %12, align 8
  %20 = load ptr, ptr %13, align 8
  %21 = load i32, ptr @hf_srvsvc_srvsvc_NetCharDevQInfoCtr_level, align 4
  %22 = load ptr, ptr %14, align 8
  %23 = load i32, ptr %22, align 4
  %24 = call i32 @PIDL_dissect_uint32(ptr noundef %15, i32 noundef %16, ptr noundef %17, ptr noundef %18, ptr noundef %19, ptr noundef %20, i32 noundef %21, i32 noundef %23)
  store i32 %24, ptr %9, align 4
  %25 = load i32, ptr %9, align 4
  ret i32 %25
}

; Function Attrs: null_pointer_is_valid sspstrong uwtable
define hidden i32 @srvsvc_dissect_struct_NetCharDevQInfoCtr(ptr noundef %0, i32 noundef %1, ptr noundef %2, ptr noundef %3, ptr noundef %4, ptr noundef %5, i32 noundef %6, i32 noundef %7) #0 {
  %9 = alloca ptr, align 8
  %10 = alloca i32, align 4
  %11 = alloca ptr, align 8
  %12 = alloca ptr, align 8
  %13 = alloca ptr, align 8
  %14 = alloca ptr, align 8
  %15 = alloca i32, align 4
  %16 = alloca i32, align 4
  %17 = alloca i32, align 4
  %18 = alloca ptr, align 8
  %19 = alloca ptr, align 8
  %20 = alloca i32, align 4
  store ptr %0, ptr %9, align 8
  store i32 %1, ptr %10, align 4
  store ptr %2, ptr %11, align 8
  store ptr %3, ptr %12, align 8
  store ptr %4, ptr %13, align 8
  store ptr %5, ptr %14, align 8
  store i32 %6, ptr %15, align 4
  store i32 %7, ptr %16, align 4
  call void @llvm.lifetime.start.p0(i64 4, ptr %17) #4
  store i32 0, ptr %17, align 4
  call void @llvm.lifetime.start.p0(i64 8, ptr %18) #4
  store ptr null, ptr %18, align 8
  call void @llvm.lifetime.start.p0(i64 8, ptr %19) #4
  store ptr null, ptr %19, align 8
  call void @llvm.lifetime.start.p0(i64 4, ptr %20) #4
  %21 = load ptr, ptr %13, align 8
  %22 = getelementptr inbounds nuw %struct._dcerpc_info, ptr %21, i32 0, i32 14
  %23 = load ptr, ptr %22, align 8
  %24 = getelementptr inbounds nuw %struct._dcerpc_call_value, ptr %23, i32 0, i32 11
  %25 = load i32, ptr %24, align 8
  %26 = and i32 %25, 1
  %27 = icmp ne i32 %26, 0
  br i1 %27, label %28, label %43

28:                                               ; preds = %8
  %29 = load ptr, ptr %13, align 8
  %30 = getelementptr inbounds nuw %struct._dcerpc_info, ptr %29, i32 0, i32 4
  %31 = load i8, ptr %30, align 1, !range !6, !noundef !7
  %32 = trunc i8 %31 to i1
  br i1 %32, label %42, label %33

33:                                               ; preds = %28
  %34 = load i32, ptr %10, align 4
  %35 = and i32 %34, 7
  %36 = icmp ne i32 %35, 0
  br i1 %36, label %37, label %41

37:                                               ; preds = %33
  %38 = load i32, ptr %10, align 4
  %39 = and i32 %38, -8
  %40 = add i32 %39, 8
  store i32 %40, ptr %10, align 4
  br label %41

41:                                               ; preds = %37, %33
  br label %42

42:                                               ; preds = %41, %28
  br label %58

43:                                               ; preds = %8
  %44 = load ptr, ptr %13, align 8
  %45 = getelementptr inbounds nuw %struct._dcerpc_info, ptr %44, i32 0, i32 4
  %46 = load i8, ptr %45, align 1, !range !6, !noundef !7
  %47 = trunc i8 %46 to i1
  br i1 %47, label %57, label %48

48:                                               ; preds = %43
  %49 = load i32, ptr %10, align 4
  %50 = and i32 %49, 3
  %51 = icmp ne i32 %50, 0
  br i1 %51, label %52, label %56

52:                                               ; preds = %48
  %53 = load i32, ptr %10, align 4
  %54 = and i32 %53, -4
  %55 = add i32 %54, 4
  store i32 %55, ptr %10, align 4
  br label %56

56:                                               ; preds = %52, %48
  br label %57

57:                                               ; preds = %56, %43
  br label %58

58:                                               ; preds = %57, %42
  %59 = load i32, ptr %10, align 4
  store i32 %59, ptr %20, align 4
  %60 = load ptr, ptr %12, align 8
  %61 = icmp ne ptr %60, null
  br i1 %61, label %62, label %71

62:                                               ; preds = %58
  %63 = load ptr, ptr %12, align 8
  %64 = load i32, ptr %15, align 4
  %65 = load ptr, ptr %9, align 8
  %66 = load i32, ptr %10, align 4
  %67 = call ptr @proto_tree_add_item(ptr noundef %63, i32 noundef %64, ptr noundef %65, i32 noundef %66, i32 noundef -1, i32 noundef 0)
  store ptr %67, ptr %18, align 8
  %68 = load ptr, ptr %18, align 8
  %69 = load i32, ptr @ett_srvsvc_srvsvc_NetCharDevQInfoCtr, align 4
  %70 = call ptr @proto_item_add_subtree(ptr noundef %68, i32 noundef %69)
  store ptr %70, ptr %19, align 8
  br label %71

71:                                               ; preds = %62, %58
  %72 = load ptr, ptr %9, align 8
  %73 = load i32, ptr %10, align 4
  %74 = load ptr, ptr %11, align 8
  %75 = load ptr, ptr %19, align 8
  %76 = load ptr, ptr %13, align 8
  %77 = load ptr, ptr %14, align 8
  %78 = call i32 @srvsvc_dissect_element_NetCharDevQInfoCtr_level(ptr noundef %72, i32 noundef %73, ptr noundef %74, ptr noundef %75, ptr noundef %76, ptr noundef %77, ptr noundef %17)
  store i32 %78, ptr %10, align 4
  %79 = load ptr, ptr %9, align 8
  %80 = load i32, ptr %10, align 4
  %81 = load ptr, ptr %11, align 8
  %82 = load ptr, ptr %19, align 8
  %83 = load ptr, ptr %13, align 8
  %84 = load ptr, ptr %14, align 8
  %85 = call i32 @srvsvc_dissect_element_NetCharDevQInfoCtr_ctr(ptr noundef %79, i32 noundef %80, ptr noundef %81, ptr noundef %82, ptr noundef %83, ptr noundef %84, ptr noundef %17)
  store i32 %85, ptr %10, align 4
  %86 = load ptr, ptr %18, align 8
  %87 = load i32, ptr %10, align 4
  %88 = load i32, ptr %20, align 4
  %89 = sub i32 %87, %88
  call void @proto_item_set_len(ptr noundef %86, i32 noundef %89)
  %90 = load ptr, ptr %13, align 8
  %91 = getelementptr inbounds nuw %struct._dcerpc_info, ptr %90, i32 0, i32 14
  %92 = load ptr, ptr %91, align 8
  %93 = getelementptr inbounds nuw %struct._dcerpc_call_value, ptr %92, i32 0, i32 11
  %94 = load i32, ptr %93, align 8
  %95 = and i32 %94, 1
  %96 = icmp ne i32 %95, 0
  br i1 %96, label %97, label %136

97:                                               ; preds = %71
  %98 = load ptr, ptr %13, align 8
  %99 = getelementptr inbounds nuw %struct._dcerpc_info, ptr %98, i32 0, i32 14
  %100 = load ptr, ptr %99, align 8
  %101 = getelementptr inbounds nuw %struct._dcerpc_call_value, ptr %100, i32 0, i32 11
  %102 = load i32, ptr %101, align 8
  %103 = and i32 %102, 1
  %104 = icmp ne i32 %103, 0
  br i1 %104, label %105, label %120

105:                                              ; preds = %97
  %106 = load ptr, ptr %13, align 8
  %107 = getelementptr inbounds nuw %struct._dcerpc_info, ptr %106, i32 0, i32 4
  %108 = load i8, ptr %107, align 1, !range !6, !noundef !7
  %109 = trunc i8 %108 to i1
  br i1 %109, label %119, label %110

110:                                              ; preds = %105
  %111 = load i32, ptr %10, align 4
  %112 = and i32 %111, 7
  %113 = icmp ne i32 %112, 0
  br i1 %113, label %114, label %118

114:                                              ; preds = %110
  %115 = load i32, ptr %10, align 4
  %116 = and i32 %115, -8
  %117 = add i32 %116, 8
  store i32 %117, ptr %10, align 4
  br label %118

118:                                              ; preds = %114, %110
  br label %119

119:                                              ; preds = %118, %105
  br label %135

120:                                              ; preds = %97
  %121 = load ptr, ptr %13, align 8
  %122 = getelementptr inbounds nuw %struct._dcerpc_info, ptr %121, i32 0, i32 4
  %123 = load i8, ptr %122, align 1, !range !6, !noundef !7
  %124 = trunc i8 %123 to i1
  br i1 %124, label %134, label %125

125:                                              ; preds = %120
  %126 = load i32, ptr %10, align 4
  %127 = and i32 %126, 3
  %128 = icmp ne i32 %127, 0
  br i1 %128, label %129, label %133

129:                                              ; preds = %125
  %130 = load i32, ptr %10, align 4
  %131 = and i32 %130, -4
  %132 = add i32 %131, 4
  store i32 %132, ptr %10, align 4
  br label %133

133:                                              ; preds = %129, %125
  br label %134

134:                                              ; preds = %133, %120
  br label %135

135:                                              ; preds = %134, %119
  br label %136

136:                                              ; preds = %135, %71
  %137 = load i32, ptr %10, align 4
  call void @llvm.lifetime.end.p0(i64 4, ptr %20) #4
  call void @llvm.lifetime.end.p0(i64 8, ptr %19) #4
  call void @llvm.lifetime.end.p0(i64 8, ptr %18) #4
  call void @llvm.lifetime.end.p0(i64 4, ptr %17) #4
  ret i32 %137
}